target datalayout = "e-m:e-p270:32:32-p271:32:32-p272:64:64-i64:64-i128:128-f80:128-n8:16:32:64-S128"
target triple = "x86_64-unknown-linux-gnu"

; Function Attrs: nounwind sspstrong uwtable
define internal i64 @muldiv64(i64 noundef %a, i32 noundef %b, i32 noundef %c) #0 {
entry:
  %a.addr = alloca i64, align 8
  %b.addr = alloca i32, align 4
  %c.addr = alloca i32, align 4
  store i64 %a, ptr %a.addr, align 8
  store i32 %b, ptr %b.addr, align 4
  store i32 %c, ptr %c.addr, align 4
  %0 = load i64, ptr %a.addr, align 8
  %conv = zext i64 %0 to i128
  %1 = load i32, ptr %b.addr, align 4
  %conv1 = zext i32 %1 to i128
  %mul = mul i128 %conv, %conv1
  %2 = load i32, ptr %c.addr, align 4
  %conv2 = zext i32 %2 to i128
  %div = sdiv i128 %mul, %conv2
  %conv3 = trunc i128 %div to i64
  ret i64 %conv3
}

; Function Attrs: nounwind sspstrong uwtable
define dso_local void @e1000x_timestamp(ptr noundef %mac, i64 noundef %timadj, i64 noundef %lo, i64 noundef %hi) #0 {
entry:
  %mac.addr = alloca ptr, align 8
  %timadj.addr = alloca i64, align 8
  %lo.addr = alloca i64, align 8
  %hi.addr = alloca i64, align 8
  %ns = alloca i64, align 8
  %timinca = alloca i32, align 4
  %incvalue = alloca i32, align 4
  %incperiod = alloca i32, align 4
  %_a5 = alloca i32, align 4
  %_b6 = alloca i32, align 4
  %tmp = alloca i32, align 4
  %timestamp = alloca i64, align 8
  store ptr %mac, ptr %mac.addr, align 8
  store i64 %timadj, ptr %timadj.addr, align 8
  store i64 %lo, ptr %lo.addr, align 8
  store i64 %hi, ptr %hi.addr, align 8
  %call = call i64 @qemu_clock_get_ns(i32 noundef 1)
  store i64 %call, ptr %ns, align 8
  %0 = load ptr, ptr %mac.addr, align 8
  %arrayidx = getelementptr i32, ptr %0, i64 11650
  %1 = load i32, ptr %arrayidx, align 4
  store i32 %1, ptr %timinca, align 4
  %2 = load i32, ptr %timinca, align 4
  %and = and i32 %2, 16777215
  store i32 %and, ptr %incvalue, align 4
  %3 = load i32, ptr %timinca, align 4
  %shr = lshr i32 %3, 24
  store i32 %shr, ptr %_a5, align 4
  store i32 1, ptr %_b6, align 4
  %4 = load i32, ptr %_a5, align 4
  %5 = load i32, ptr %_b6, align 4
  %cmp = icmp ugt i32 %4, %5
  br i1 %cmp, label %cond.true, label %cond.false

cond.true:                                        ; preds = %entry
  %6 = load i32, ptr %_a5, align 4
  br label %cond.end

cond.false:                                       ; preds = %entry
  %7 = load i32, ptr %_b6, align 4
  br label %cond.end

cond.end:                                         ; preds = %cond.false, %cond.true
  %cond = phi i32 [ %6, %cond.true ], [ %7, %cond.false ]
  store i32 %cond, ptr %tmp, align 4
  %8 = load i32, ptr %tmp, align 4
  store i32 %8, ptr %incperiod, align 4
  %9 = load i64, ptr %timadj.addr, align 8
  %10 = load i64, ptr %ns, align 8
  %11 = load i32, ptr %incvalue, align 4
  %12 = load i32, ptr %incperiod, align 4
  %mul = mul i32 %12, 16
  %call1 = call i64 @muldiv64(i64 noundef %10, i32 noundef %11, i32 noundef %mul)
  %add = add i64 %9, %call1
  store i64 %add, ptr %timestamp, align 8
  %13 = load i64, ptr %timestamp, align 8
  %and2 = and i64 %13, 4294967295
  %conv = trunc i64 %and2 to i32
  %14 = load ptr, ptr %mac.addr, align 8
  %15 = load i64, ptr %lo.addr, align 8
  %arrayidx3 = getelementptr i32, ptr %14, i64 %15
  store i32 %conv, ptr %arrayidx3, align 4
  %16 = load i64, ptr %timestamp, align 8
  %shr4 = ashr i64 %16, 32
  %conv5 = trunc i64 %shr4 to i32
  %17 = load ptr, ptr %mac.addr, align 8
  %18 = load i64, ptr %hi.addr, align 8
  %arrayidx6 = getelementptr i32, ptr %17, i64 %18
  store i32 %conv5, ptr %arrayidx6, align 4
  ret void
}