; Function Attrs: nounwind sspstrong uwtable
define dso_local void @e1000x_timestamp(ptr noundef captures(none) %mac, i64 noundef %timadj, i64 noundef %lo, i64 noundef %hi) local_unnamed_addr #0 {
entry:
  %call = tail call i64 @qemu_clock_get_ns(i32 noundef 1) #11
  %arrayidx = getelementptr i8, ptr %mac, i64 46600
  %0 = load i32, ptr %arrayidx, align 4
  %and = and i32 %0, 16777215
  %shr = lshr i32 %0, 24
  %cond = tail call i32 @llvm.umax.i32(i32 %shr, i32 1)
  %mul = shl nuw nsw i32 %cond, 4
  %conv.i = zext i64 %call to i128
  %conv1.i = zext nneg i32 %and to i128
  %mul.i = mul nuw nsw i128 %conv1.i, %conv.i
  %conv2.i = zext nneg i32 %mul to i128
  %div.i = udiv i128 %mul.i, %conv2.i
  %conv3.i = trunc i128 %div.i to i64
  %add = add i64 %timadj, %conv3.i
  %conv = trunc i64 %add to i32
  %arrayidx3 = getelementptr i32, ptr %mac, i64 %lo
  store i32 %conv, ptr %arrayidx3, align 4
  %shr4 = lshr i64 %add, 32
  %conv5 = trunc nuw i64 %shr4 to i32
  %arrayidx6 = getelementptr i32, ptr %mac, i64 %hi
  store i32 %conv5, ptr %arrayidx6, align 4
  ret void
}